; Function Attrs: mustprogress uwtable
define hidden void @_ZNK3sat12local_search12verify_slackEv(ptr noundef nonnull readonly align 8 captures(none) dereferenceable(232) %0) local_unnamed_addr #3 align 2 {
  %2 = getelementptr inbounds nuw i8, ptr %0, i64 64
  %3 = load ptr, ptr %2, align 8, !tbaa !72
  %4 = icmp eq ptr %3, null
  br i1 %4, label %._crit_edge, label %_ZNK6vectorIN3sat12local_search10constraintELb1EjE3endEv.exit

_ZNK6vectorIN3sat12local_search10constraintELb1EjE3endEv.exit: ; preds = %1
  %5 = getelementptr inbounds i8, ptr %3, i64 -4
  %6 = load i32, ptr %5, align 4, !tbaa !13
  %7 = zext i32 %6 to i64
  %8 = getelementptr inbounds nuw %"struct.sat::local_search::constraint", ptr %3, i64 %7
  %.not8 = icmp eq i32 %6, 0
  br i1 %.not8, label %._crit_edge, label %.lr.ph

._crit_edge:                                      ; preds = %.lr.ph, %1, %_ZNK6vectorIN3sat12local_search10constraintELb1EjE3endEv.exit
  ret void

.lr.ph:                                           ; preds = %_ZNK6vectorIN3sat12local_search10constraintELb1EjE3endEv.exit, %.lr.ph
  %.09 = phi ptr [ %9, %.lr.ph ], [ %3, %_ZNK6vectorIN3sat12local_search10constraintELb1EjE3endEv.exit ]
  tail call void @_ZNK3sat12local_search12verify_slackERKNS0_10constraintE(ptr noundef nonnull align 8 dereferenceable(232) %0, ptr noundef nonnull align 8 dereferenceable(32) %.09)
  %9 = getelementptr inbounds nuw i8, ptr %.09, i64 32
  %.not = icmp eq ptr %9, %8
  br i1 %.not, label %._crit_edge, label %.lr.ph
}